target datalayout = "e-m:e-p270:32:32-p271:32:32-p272:64:64-i64:64-i128:128-f80:128-n8:16:32:64-S128"
target triple = "x86_64-pc-linux-gnu"

%struct.SDL_HIDAPI_Device = type { ptr, ptr, ptr, ptr, i16, i16, i16, ptr, %struct.SDL_GUID, i32, i32, i32, i32, i16, i16, i8, i32, i32, i32, ptr, ptr, ptr, ptr, %struct.SDL_AtomicInt, i32, ptr, i8, i8, i8, ptr, i32, ptr, ptr }
%struct.SDL_GUID = type { [16 x i8] }
%struct.SDL_AtomicInt = type { i32 }
%struct.SDL_HIDAPI_DeviceDriver = type { ptr, i8, ptr, ptr, ptr, ptr, ptr, ptr, ptr, ptr, ptr, ptr, ptr, ptr, ptr, ptr, ptr, ptr, ptr }
%struct.SDL_Joystick = type { i32, ptr, ptr, ptr, %struct.SDL_GUID, i16, i64, i8, i8, i32, ptr, i32, ptr, i32, ptr, i32, ptr, i32, ptr, i32, i32, ptr, i16, i16, i64, i64, i16, i16, i64, i64, i8, i8, i8, i64, i8, i32, i32, i32, i8, i32, ptr, i32, ptr, [3 x [3 x float]], i64, ptr, ptr, i32, i32, ptr }

@.str.1 = private unnamed_addr constant [2 x i8] c",\00", align 1

; Function Attrs: nounwind uwtable
define internal zeroext i1 @HIDAPI_DriverCombined_OpenJoystick(ptr noundef %0, ptr noundef %1) #0 {
  %3 = alloca i1, align 1
  %4 = alloca ptr, align 8
  %5 = alloca ptr, align 8
  %6 = alloca i32, align 4
  %7 = alloca ptr, align 8
  %8 = alloca ptr, align 8
  %9 = alloca i64, align 8
  %10 = alloca i64, align 8
  %11 = alloca ptr, align 8
  %12 = alloca i32, align 4
  store ptr %0, ptr %4, align 8
  store ptr %1, ptr %5, align 8
  call void @llvm.lifetime.start.p0(i64 4, ptr %6) #4
  call void @llvm.lifetime.start.p0(i64 8, ptr %7) #4
  store ptr null, ptr %7, align 8
  call void @llvm.lifetime.start.p0(i64 8, ptr %8) #4
  call void @llvm.lifetime.start.p0(i64 8, ptr %9) #4
  store i64 0, ptr %9, align 8
  call void @llvm.lifetime.start.p0(i64 8, ptr %10) #4
  call void @SDL_AssertJoysticksLocked()
  store i32 0, ptr %6, align 4
  br label %13

13:                                               ; preds = %114, %2
  %14 = load i32, ptr %6, align 4
  %15 = load ptr, ptr %4, align 8
  %16 = getelementptr inbounds nuw %struct.SDL_HIDAPI_Device, ptr %15, i32 0, i32 30
  %17 = load i32, ptr %16, align 8
  %18 = icmp slt i32 %14, %17
  br i1 %18, label %19, label %117

19:                                               ; preds = %13
  call void @llvm.lifetime.start.p0(i64 8, ptr %11) #4
  %20 = load ptr, ptr %4, align 8
  %21 = getelementptr inbounds nuw %struct.SDL_HIDAPI_Device, ptr %20, i32 0, i32 31
  %22 = load ptr, ptr %21, align 8
  %23 = load i32, ptr %6, align 4
  %24 = sext i32 %23 to i64
  %25 = getelementptr inbounds ptr, ptr %22, i64 %24
  %26 = load ptr, ptr %25, align 8
  store ptr %26, ptr %11, align 8
  %27 = load ptr, ptr %11, align 8
  %28 = getelementptr inbounds nuw %struct.SDL_HIDAPI_Device, ptr %27, i32 0, i32 19
  %29 = load ptr, ptr %28, align 8
  %30 = getelementptr inbounds nuw %struct.SDL_HIDAPI_DeviceDriver, ptr %29, i32 0, i32 10
  %31 = load ptr, ptr %30, align 8
  %32 = load ptr, ptr %11, align 8
  %33 = load ptr, ptr %5, align 8
  %34 = call zeroext i1 %31(ptr noundef %32, ptr noundef %33)
  br i1 %34, label %63, label %35

35:                                               ; preds = %19
  %36 = load ptr, ptr %11, align 8
  %37 = getelementptr inbounds nuw %struct.SDL_HIDAPI_Device, ptr %36, i32 0, i32 28
  store i8 1, ptr %37, align 2
  br label %38

38:                                               ; preds = %42, %35
  %39 = load i32, ptr %6, align 4
  %40 = add nsw i32 %39, -1
  store i32 %40, ptr %6, align 4
  %41 = icmp sgt i32 %39, 0
  br i1 %41, label %42, label %57

42:                                               ; preds = %38
  %43 = load ptr, ptr %4, align 8
  %44 = getelementptr inbounds nuw %struct.SDL_HIDAPI_Device, ptr %43, i32 0, i32 31
  %45 = load ptr, ptr %44, align 8
  %46 = load i32, ptr %6, align 4
  %47 = sext i32 %46 to i64
  %48 = getelementptr inbounds ptr, ptr %45, i64 %47
  %49 = load ptr, ptr %48, align 8
  store ptr %49, ptr %11, align 8
  %50 = load ptr, ptr %11, align 8
  %51 = getelementptr inbounds nuw %struct.SDL_HIDAPI_Device, ptr %50, i32 0, i32 19
  %52 = load ptr, ptr %51, align 8
  %53 = getelementptr inbounds nuw %struct.SDL_HIDAPI_DeviceDriver, ptr %52, i32 0, i32 17
  %54 = load ptr, ptr %53, align 8
  %55 = load ptr, ptr %11, align 8
  %56 = load ptr, ptr %5, align 8
  call void %54(ptr noundef %55, ptr noundef %56)
  br label %38, !llvm.loop !5

57:                                               ; preds = %38
  %58 = load ptr, ptr %7, align 8
  %59 = icmp ne ptr %58, null
  br i1 %59, label %60, label %62

60:                                               ; preds = %57
  %61 = load ptr, ptr %7, align 8
  call void @SDL_free_REAL(ptr noundef %61)
  br label %62

62:                                               ; preds = %60, %57
  store i1 false, ptr %3, align 1
  store i32 1, ptr %12, align 4
  br label %111

63:                                               ; preds = %19
  %64 = load ptr, ptr %5, align 8
  %65 = getelementptr inbounds nuw %struct.SDL_Joystick, ptr %64, i32 0, i32 3
  %66 = load ptr, ptr %65, align 8
  %67 = icmp ne ptr %66, null
  br i1 %67, label %68, label %110

68:                                               ; preds = %63
  %69 = load i64, ptr %9, align 8
  %70 = add i64 %69, 1
  %71 = load ptr, ptr %5, align 8
  %72 = getelementptr inbounds nuw %struct.SDL_Joystick, ptr %71, i32 0, i32 3
  %73 = load ptr, ptr %72, align 8
  %74 = call i64 @SDL_strlen_REAL(ptr noundef %73)
  %75 = add i64 %70, %74
  store i64 %75, ptr %10, align 8
  %76 = load ptr, ptr %7, align 8
  %77 = load i64, ptr %10, align 8
  %78 = call ptr @SDL_realloc_REAL(ptr noundef %76, i64 noundef %77) #5
  store ptr %78, ptr %8, align 8
  %79 = load ptr, ptr %8, align 8
  %80 = icmp ne ptr %79, null
  br i1 %80, label %81, label %104

81:                                               ; preds = %68
  %82 = load ptr, ptr %7, align 8
  %83 = icmp ne ptr %82, null
  br i1 %83, label %84, label %94

84:                                               ; preds = %81
  %85 = load ptr, ptr %8, align 8
  %86 = load i64, ptr %10, align 8
  %87 = call i64 @SDL_strlcat_REAL(ptr noundef %85, ptr noundef @.str.1, i64 noundef %86)
  %88 = load ptr, ptr %8, align 8
  %89 = load ptr, ptr %5, align 8
  %90 = getelementptr inbounds nuw %struct.SDL_Joystick, ptr %89, i32 0, i32 3
  %91 = load ptr, ptr %90, align 8
  %92 = load i64, ptr %10, align 8
  %93 = call i64 @SDL_strlcat_REAL(ptr noundef %88, ptr noundef %91, i64 noundef %92)
  br label %101

94:                                               ; preds = %81
  %95 = load ptr, ptr %8, align 8
  %96 = load ptr, ptr %5, align 8
  %97 = getelementptr inbounds nuw %struct.SDL_Joystick, ptr %96, i32 0, i32 3
  %98 = load ptr, ptr %97, align 8
  %99 = load i64, ptr %10, align 8
  %100 = call i64 @SDL_strlcpy_REAL(ptr noundef %95, ptr noundef %98, i64 noundef %99)
  br label %101

101:                                              ; preds = %94, %84
  %102 = load ptr, ptr %8, align 8
  store ptr %102, ptr %7, align 8
  %103 = load i64, ptr %10, align 8
  store i64 %103, ptr %9, align 8
  br label %104

104:                                              ; preds = %101, %68
  %105 = load ptr, ptr %5, align 8
  %106 = getelementptr inbounds nuw %struct.SDL_Joystick, ptr %105, i32 0, i32 3
  %107 = load ptr, ptr %106, align 8
  call void @SDL_free_REAL(ptr noundef %107)
  %108 = load ptr, ptr %5, align 8
  %109 = getelementptr inbounds nuw %struct.SDL_Joystick, ptr %108, i32 0, i32 3
  store ptr null, ptr %109, align 8
  br label %110

110:                                              ; preds = %104, %63
  store i32 0, ptr %12, align 4
  br label %111

111:                                              ; preds = %110, %62
  call void @llvm.lifetime.end.p0(i64 8, ptr %11) #4
  %112 = load i32, ptr %12, align 4
  switch i32 %112, label %130 [
    i32 0, label %113
  ]

113:                                              ; preds = %111
  br label %114

114:                                              ; preds = %113
  %115 = load i32, ptr %6, align 4
  %116 = add nsw i32 %115, 1
  store i32 %116, ptr %6, align 4
  br label %13, !llvm.loop !6

117:                                              ; preds = %13
  %118 = load ptr, ptr %5, align 8
  %119 = getelementptr inbounds nuw %struct.SDL_Joystick, ptr %118, i32 0, i32 3
  %120 = load ptr, ptr %119, align 8
  %121 = icmp ne ptr %120, null
  br i1 %121, label %122, label %126

122:                                              ; preds = %117
  %123 = load ptr, ptr %5, align 8
  %124 = getelementptr inbounds nuw %struct.SDL_Joystick, ptr %123, i32 0, i32 3
  %125 = load ptr, ptr %124, align 8
  call void @SDL_free_REAL(ptr noundef %125)
  br label %126

126:                                              ; preds = %122, %117
  %127 = load ptr, ptr %7, align 8
  %128 = load ptr, ptr %5, align 8
  %129 = getelementptr inbounds nuw %struct.SDL_Joystick, ptr %128, i32 0, i32 3
  store ptr %127, ptr %129, align 8
  store i1 true, ptr %3, align 1
  store i32 1, ptr %12, align 4
  br label %130

130:                                              ; preds = %126, %111
  call void @llvm.lifetime.end.p0(i64 8, ptr %10) #4
  call void @llvm.lifetime.end.p0(i64 8, ptr %9) #4
  call void @llvm.lifetime.end.p0(i64 8, ptr %8) #4
  call void @llvm.lifetime.end.p0(i64 8, ptr %7) #4
  call void @llvm.lifetime.end.p0(i64 4, ptr %6) #4
  %131 = load i1, ptr %3, align 1
  ret i1 %131
}