; Function Attrs: nounwind uwtable
define internal noundef zeroext i1 @HIDAPI_DriverCombined_OpenJoystick(ptr noundef readonly captures(none) %0, ptr noundef %1) #1 {
  tail call void @SDL_AssertJoysticksLocked() #4
  %3 = getelementptr inbounds nuw i8, ptr %0, i64 168
  %4 = getelementptr inbounds nuw i8, ptr %0, i64 176
  %5 = getelementptr inbounds nuw i8, ptr %1, i64 24
  %6 = load i32, ptr %3, align 8
  %.not62.not.not79 = icmp slt i32 %6, 1
  br i1 %.not62.not.not79, label %._crit_edge86, label %.lr.ph85

.lr.ph85:                                         ; preds = %2, %45
  %.04282 = phi i64 [ %.244, %45 ], [ 0, %2 ]
  %.04581 = phi i32 [ %46, %45 ], [ 0, %2 ]
  %.04880 = phi ptr [ %.250, %45 ], [ null, %2 ]
  %7 = load ptr, ptr %4, align 8
  %8 = zext nneg i32 %.04581 to i64
  %9 = getelementptr inbounds nuw ptr, ptr %7, i64 %8
  %10 = load ptr, ptr %9, align 8
  %11 = getelementptr inbounds nuw i8, ptr %10, i64 104
  %12 = load ptr, ptr %11, align 8
  %13 = getelementptr inbounds nuw i8, ptr %12, i64 80
  %14 = load ptr, ptr %13, align 8
  %15 = tail call zeroext i1 %14(ptr noundef %10, ptr noundef %1) #4
  br i1 %15, label %28, label %16

16:                                               ; preds = %.lr.ph85
  %17 = getelementptr inbounds nuw i8, ptr %10, i64 154
  store i8 1, ptr %17, align 2
  %.not74 = icmp eq i32 %.04581, 0
  br i1 %.not74, label %._crit_edge, label %.lr.ph.preheader

.lr.ph.preheader:                                 ; preds = %16
  %18 = zext nneg i32 %.04581 to i64
  br label %.lr.ph

.lr.ph:                                           ; preds = %.lr.ph.preheader, %.lr.ph
  %indvars.iv = phi i64 [ %18, %.lr.ph.preheader ], [ %indvars.iv.next, %.lr.ph ]
  %indvars.iv.next = add nsw i64 %indvars.iv, -1
  %19 = load ptr, ptr %4, align 8
  %20 = getelementptr inbounds nuw ptr, ptr %19, i64 %indvars.iv.next
  %21 = load ptr, ptr %20, align 8
  %22 = getelementptr inbounds nuw i8, ptr %21, i64 104
  %23 = load ptr, ptr %22, align 8
  %24 = getelementptr inbounds nuw i8, ptr %23, i64 136
  %25 = load ptr, ptr %24, align 8
  tail call void %25(ptr noundef %21, ptr noundef %1) #4
  %26 = icmp samesign ugt i64 %indvars.iv, 1
  br i1 %26, label %.lr.ph, label %._crit_edge, !llvm.loop !5

._crit_edge:                                      ; preds = %.lr.ph, %16
  %.not55 = icmp eq ptr %.04880, null
  br i1 %.not55, label %.loopexit, label %27

27:                                               ; preds = %._crit_edge
  tail call void @SDL_free_REAL(ptr noundef nonnull %.04880) #4
  br label %.loopexit

28:                                               ; preds = %.lr.ph85
  %29 = load ptr, ptr %5, align 8
  %.not56 = icmp eq ptr %29, null
  br i1 %.not56, label %45, label %30

30:                                               ; preds = %28
  %31 = add i64 %.04282, 1
  %32 = tail call i64 @SDL_strlen_REAL(ptr noundef nonnull %29) #4
  %33 = add i64 %31, %32
  %34 = tail call ptr @SDL_realloc_REAL(ptr noundef %.04880, i64 noundef %33) #5
  %.not57 = icmp eq ptr %34, null
  br i1 %.not57, label %43, label %35

35:                                               ; preds = %30
  %.not58 = icmp eq ptr %.04880, null
  br i1 %.not58, label %40, label %36

36:                                               ; preds = %35
  %37 = tail call i64 @SDL_strlcat_REAL(ptr noundef nonnull %34, ptr noundef nonnull @.str.1, i64 noundef %33) #4
  %38 = load ptr, ptr %5, align 8
  %39 = tail call i64 @SDL_strlcat_REAL(ptr noundef nonnull %34, ptr noundef %38, i64 noundef %33) #4
  br label %43

40:                                               ; preds = %35
  %41 = load ptr, ptr %5, align 8
  %42 = tail call i64 @SDL_strlcpy_REAL(ptr noundef nonnull %34, ptr noundef %41, i64 noundef %33) #4
  br label %43

43:                                               ; preds = %36, %40, %30
  %.351 = phi ptr [ %.04880, %30 ], [ %34, %40 ], [ %34, %36 ]
  %.3 = phi i64 [ %.04282, %30 ], [ %33, %40 ], [ %33, %36 ]
  %44 = load ptr, ptr %5, align 8
  tail call void @SDL_free_REAL(ptr noundef %44) #4
  store ptr null, ptr %5, align 8
  br label %45

45:                                               ; preds = %28, %43
  %.250 = phi ptr [ %.351, %43 ], [ %.04880, %28 ]
  %.244 = phi i64 [ %.3, %43 ], [ %.04282, %28 ]
  %46 = add nuw nsw i32 %.04581, 1
  %47 = load i32, ptr %3, align 8
  %.not62.not.not.not = icmp slt i32 %46, %47
  br i1 %.not62.not.not.not, label %.lr.ph85, label %._crit_edge86

._crit_edge86:                                    ; preds = %45, %2
  %.048.lcssa = phi ptr [ null, %2 ], [ %.250, %45 ]
  %48 = load ptr, ptr %5, align 8
  %.not = icmp eq ptr %48, null
  br i1 %.not, label %50, label %49

49:                                               ; preds = %._crit_edge86
  tail call void @SDL_free_REAL(ptr noundef nonnull %48) #4
  br label %50

50:                                               ; preds = %49, %._crit_edge86
  store ptr %.048.lcssa, ptr %5, align 8
  br label %.loopexit

.loopexit:                                        ; preds = %27, %._crit_edge, %50
  %.not62.not.not76 = phi i1 [ false, %27 ], [ false, %._crit_edge ], [ true, %50 ]
  ret i1 %.not62.not.not76
}